target datalayout = "e-m:e-p270:32:32-p271:32:32-p272:64:64-i64:64-i128:128-f80:128-n8:16:32:64-S128"
target triple = "x86_64-pc-linux-gnu"

%"class.gmx::ProcessFrameConversion" = type { %"class.gmx::IFrameConverter", %"class.std::vector", %"class.std::unique_ptr", %"class.std::vector.2", %"class.std::vector.2", %"class.std::vector.2", i64 }
%"class.gmx::IFrameConverter" = type { ptr }
%"class.std::vector" = type { %"struct.std::_Vector_base" }
%"struct.std::_Vector_base" = type { %"struct.std::_Vector_base<gmx::ProcessFrameConversion::FrameModule, std::allocator<gmx::ProcessFrameConversion::FrameModule>>::_Vector_impl" }
%"struct.std::_Vector_base<gmx::ProcessFrameConversion::FrameModule, std::allocator<gmx::ProcessFrameConversion::FrameModule>>::_Vector_impl" = type { %"struct.std::_Vector_base<gmx::ProcessFrameConversion::FrameModule, std::allocator<gmx::ProcessFrameConversion::FrameModule>>::_Vector_impl_data" }
%"struct.std::_Vector_base<gmx::ProcessFrameConversion::FrameModule, std::allocator<gmx::ProcessFrameConversion::FrameModule>>::_Vector_impl_data" = type { ptr, ptr, ptr }
%"class.std::unique_ptr" = type { %"struct.std::__uniq_ptr_data" }
%"struct.std::__uniq_ptr_data" = type { %"class.std::__uniq_ptr_impl" }
%"class.std::__uniq_ptr_impl" = type { %"class.std::tuple" }
%"class.std::tuple" = type { %"struct.std::_Tuple_impl" }
%"struct.std::_Tuple_impl" = type { %"struct.std::_Head_base.1" }
%"struct.std::_Head_base.1" = type { ptr }
%"class.std::vector.2" = type { %"struct.std::_Vector_base.3" }
%"struct.std::_Vector_base.3" = type { %"struct.std::_Vector_base<gmx::BasicVector<float>, std::allocator<gmx::BasicVector<float>>>::_Vector_impl" }
%"struct.std::_Vector_base<gmx::BasicVector<float>, std::allocator<gmx::BasicVector<float>>>::_Vector_impl" = type { %"struct.std::_Vector_base<gmx::BasicVector<float>, std::allocator<gmx::BasicVector<float>>>::_Vector_impl_data" }
%"struct.std::_Vector_base<gmx::BasicVector<float>, std::allocator<gmx::BasicVector<float>>>::_Vector_impl_data" = type { ptr, ptr, ptr }
%struct.t_trxframe = type { i32, i8, i32, i8, i64, i8, float, i8, i8, float, i32, i8, ptr, i8, float, i8, ptr, i8, ptr, i8, ptr, i8, [3 x [3 x float]], i8, i32, i8, ptr }

; Function Attrs: mustprogress nounwind uwtable
define linkonce_odr noundef nonnull align 8 dereferenceable(8) ptr @_ZNSt10_Head_baseILm0EP10t_trxframeLb0EE7_M_headERKS2_(ptr noundef nonnull align 8 dereferenceable(8) %0) #0 comdat align 2 {
  %2 = alloca ptr, align 8
  store ptr %0, ptr %2, align 8
  %3 = load ptr, ptr %2, align 8
  %4 = getelementptr inbounds %"struct.std::_Head_base.1", ptr %3, i32 0, i32 0
  ret ptr %4
}

; Function Attrs: mustprogress nounwind uwtable
define linkonce_odr noundef nonnull align 8 dereferenceable(8) ptr @_ZNSt11_Tuple_implILm0EJP10t_trxframeSt14default_deleteIS0_EEE7_M_headERKS4_(ptr noundef nonnull align 8 dereferenceable(8) %0) #0 comdat align 2 {
  %2 = alloca ptr, align 8
  store ptr %0, ptr %2, align 8
  %3 = load ptr, ptr %2, align 8
  %4 = call noundef nonnull align 8 dereferenceable(8) ptr @_ZNSt10_Head_baseILm0EP10t_trxframeLb0EE7_M_headERKS2_(ptr noundef nonnull align 8 dereferenceable(8) %3) #10
  ret ptr %4
}

; Function Attrs: mustprogress nounwind uwtable
define linkonce_odr noundef nonnull align 8 dereferenceable(8) ptr @_ZSt12__get_helperILm0EP10t_trxframeJSt14default_deleteIS0_EEERKT0_RKSt11_Tuple_implIXT_EJS4_DpT1_EE(ptr noundef nonnull align 8 dereferenceable(8) %0) #0 comdat {
  %2 = alloca ptr, align 8
  store ptr %0, ptr %2, align 8
  %3 = load ptr, ptr %2, align 8
  %4 = call noundef nonnull align 8 dereferenceable(8) ptr @_ZNSt11_Tuple_implILm0EJP10t_trxframeSt14default_deleteIS0_EEE7_M_headERKS4_(ptr noundef nonnull align 8 dereferenceable(8) %3) #10
  ret ptr %4
}

; Function Attrs: mustprogress nounwind uwtable
define linkonce_odr noundef nonnull align 8 dereferenceable(8) ptr @_ZSt3getILm0EJP10t_trxframeSt14default_deleteIS0_EEERKNSt13tuple_elementIXT_ESt5tupleIJDpT0_EEE4typeERKS8_(ptr noundef nonnull align 8 dereferenceable(8) %0) #0 comdat {
  %2 = alloca ptr, align 8
  store ptr %0, ptr %2, align 8
  %3 = load ptr, ptr %2, align 8
  %4 = call noundef nonnull align 8 dereferenceable(8) ptr @_ZSt12__get_helperILm0EP10t_trxframeJSt14default_deleteIS0_EEERKT0_RKSt11_Tuple_implIXT_EJS4_DpT1_EE(ptr noundef nonnull align 8 dereferenceable(8) %3) #10
  ret ptr %4
}

; Function Attrs: mustprogress nounwind uwtable
define linkonce_odr noundef ptr @_ZNKSt15__uniq_ptr_implI10t_trxframeSt14default_deleteIS0_EE6_M_ptrEv(ptr noundef nonnull align 8 dereferenceable(8) %0) #0 comdat align 2 {
  %2 = alloca ptr, align 8
  store ptr %0, ptr %2, align 8
  %3 = load ptr, ptr %2, align 8
  %4 = getelementptr inbounds %"class.std::__uniq_ptr_impl", ptr %3, i32 0, i32 0
  %5 = call noundef nonnull align 8 dereferenceable(8) ptr @_ZSt3getILm0EJP10t_trxframeSt14default_deleteIS0_EEERKNSt13tuple_elementIXT_ESt5tupleIJDpT0_EEE4typeERKS8_(ptr noundef nonnull align 8 dereferenceable(8) %4) #10
  %6 = load ptr, ptr %5, align 8
  ret ptr %6
}

; Function Attrs: mustprogress nounwind uwtable
define internal noundef ptr @_ZN3gmxL12as_vec_arrayIfEEPNS_11BasicVectorIT_E8RawArrayEPS3_(ptr noundef %0) #0 {
  %2 = alloca ptr, align 8
  store ptr %0, ptr %2, align 8
  %3 = load ptr, ptr %2, align 8
  ret ptr %3
}

; Function Attrs: mustprogress nounwind uwtable
define linkonce_odr noundef ptr @_ZNKSt6vectorIN3gmx11BasicVectorIfEESaIS2_EE11_M_data_ptrIS2_EEPT_S7_(ptr noundef nonnull align 8 dereferenceable(24) %0, ptr noundef %1) #0 comdat align 2 {
  %3 = alloca ptr, align 8
  %4 = alloca ptr, align 8
  store ptr %0, ptr %3, align 8
  store ptr %1, ptr %4, align 8
  %5 = load ptr, ptr %4, align 8
  ret ptr %5
}

; Function Attrs: mustprogress nounwind uwtable
define linkonce_odr noundef ptr @_ZNKSt10unique_ptrI10t_trxframeSt14default_deleteIS0_EE3getEv(ptr noundef nonnull align 8 dereferenceable(8) %0) #0 comdat align 2 {
  %2 = alloca ptr, align 8
  store ptr %0, ptr %2, align 8
  %3 = load ptr, ptr %2, align 8
  %4 = getelementptr inbounds %"class.std::unique_ptr", ptr %3, i32 0, i32 0
  %5 = call noundef ptr @_ZNKSt15__uniq_ptr_implI10t_trxframeSt14default_deleteIS0_EE6_M_ptrEv(ptr noundef nonnull align 8 dereferenceable(8) %4) #10
  ret ptr %5
}

; Function Attrs: mustprogress nounwind uwtable
define internal void @_ZL9copy_rvecPKfPf(ptr noundef %0, ptr noundef %1) #0 {
  %3 = alloca ptr, align 8
  %4 = alloca ptr, align 8
  store ptr %0, ptr %3, align 8
  store ptr %1, ptr %4, align 8
  %5 = load ptr, ptr %3, align 8
  %6 = getelementptr inbounds float, ptr %5, i64 0
  %7 = load float, ptr %6, align 4
  %8 = load ptr, ptr %4, align 8
  %9 = getelementptr inbounds float, ptr %8, i64 0
  store float %7, ptr %9, align 4
  %10 = load ptr, ptr %3, align 8
  %11 = getelementptr inbounds float, ptr %10, i64 1
  %12 = load float, ptr %11, align 4
  %13 = load ptr, ptr %4, align 8
  %14 = getelementptr inbounds float, ptr %13, i64 1
  store float %12, ptr %14, align 4
  %15 = load ptr, ptr %3, align 8
  %16 = getelementptr inbounds float, ptr %15, i64 2
  %17 = load float, ptr %16, align 4
  %18 = load ptr, ptr %4, align 8
  %19 = getelementptr inbounds float, ptr %18, i64 2
  store float %17, ptr %19, align 4
  ret void
}

; Function Attrs: mustprogress nounwind uwtable
define linkonce_odr noundef ptr @_ZNKSt10unique_ptrI10t_trxframeSt14default_deleteIS0_EEptEv(ptr noundef nonnull align 8 dereferenceable(8) %0) #0 comdat align 2 {
  %2 = alloca ptr, align 8
  store ptr %0, ptr %2, align 8
  %3 = load ptr, ptr %2, align 8
  %4 = call noundef ptr @_ZNKSt10unique_ptrI10t_trxframeSt14default_deleteIS0_EE3getEv(ptr noundef nonnull align 8 dereferenceable(8) %3) #10
  ret ptr %4
}

; Function Attrs: mustprogress uwtable
define internal noundef ptr @_ZN3gmxL13as_rvec_arrayEPNS_11BasicVectorIfEE(ptr noundef %0) #1 {
  %2 = alloca ptr, align 8
  store ptr %0, ptr %2, align 8
  %3 = load ptr, ptr %2, align 8
  %4 = call noundef ptr @_ZN3gmxL12as_vec_arrayIfEEPNS_11BasicVectorIT_E8RawArrayEPS3_(ptr noundef %3)
  ret ptr %4
}

; Function Attrs: mustprogress nounwind uwtable
define linkonce_odr noundef ptr @_ZNSt6vectorIN3gmx11BasicVectorIfEESaIS2_EE4dataEv(ptr noundef nonnull align 8 dereferenceable(24) %0) #0 comdat align 2 {
  %2 = alloca ptr, align 8
  store ptr %0, ptr %2, align 8
  %3 = load ptr, ptr %2, align 8
  %4 = getelementptr inbounds %"struct.std::_Vector_base.3", ptr %3, i32 0, i32 0
  %5 = getelementptr inbounds %"struct.std::_Vector_base<gmx::BasicVector<float>, std::allocator<gmx::BasicVector<float>>>::_Vector_impl_data", ptr %4, i32 0, i32 0
  %6 = load ptr, ptr %5, align 8
  %7 = call noundef ptr @_ZNKSt6vectorIN3gmx11BasicVectorIfEESaIS2_EE11_M_data_ptrIS2_EEPT_S7_(ptr noundef nonnull align 8 dereferenceable(24) %3, ptr noundef %6) #10
  ret ptr %7
}

; Function Attrs: mustprogress nounwind uwtable
define linkonce_odr noundef nonnull align 8 dereferenceable(176) ptr @_ZNKSt10unique_ptrI10t_trxframeSt14default_deleteIS0_EEdeEv(ptr noundef nonnull align 8 dereferenceable(8) %0) #0 comdat align 2 {
  %2 = alloca ptr, align 8
  store ptr %0, ptr %2, align 8
  %3 = load ptr, ptr %2, align 8
  br label %4

4:                                                ; preds = %1
  br label %5

5:                                                ; preds = %4
  br label %6

6:                                                ; preds = %5
  %7 = call noundef ptr @_ZNKSt10unique_ptrI10t_trxframeSt14default_deleteIS0_EE3getEv(ptr noundef nonnull align 8 dereferenceable(8) %3) #10
  ret ptr %7
}

; Function Attrs: mustprogress uwtable
define void @_ZN3gmx22ProcessFrameConversion21prepareNewCoordinatesEPK10t_trxframe(ptr noundef nonnull align 8 dereferenceable(120) %0, ptr noundef %1) #1 align 2 {
  %3 = alloca ptr, align 8
  %4 = alloca ptr, align 8
  %5 = alloca i32, align 4
  store ptr %0, ptr %3, align 8
  store ptr %1, ptr %4, align 8
  %6 = load ptr, ptr %3, align 8
  %7 = load ptr, ptr %4, align 8
  %8 = getelementptr inbounds %"class.gmx::ProcessFrameConversion", ptr %6, i32 0, i32 2
  %9 = call noundef nonnull align 8 dereferenceable(176) ptr @_ZNKSt10unique_ptrI10t_trxframeSt14default_deleteIS0_EEdeEv(ptr noundef nonnull align 8 dereferenceable(8) %8) #10
  call void @llvm.memcpy.p0.p0.i64(ptr align 8 %9, ptr align 8 %7, i64 176, i1 false)
  %10 = getelementptr inbounds %"class.gmx::ProcessFrameConversion", ptr %6, i32 0, i32 3
  %11 = load ptr, ptr %4, align 8
  %12 = getelementptr inbounds %struct.t_trxframe, ptr %11, i32 0, i32 2
  %13 = load i32, ptr %12, align 8
  %14 = sext i32 %13 to i64
  call void @_ZNSt6vectorIN3gmx11BasicVectorIfEESaIS2_EE6resizeEm(ptr noundef nonnull align 8 dereferenceable(24) %10, i64 noundef %14)
  %15 = getelementptr inbounds %"class.gmx::ProcessFrameConversion", ptr %6, i32 0, i32 3
  %16 = call noundef ptr @_ZNSt6vectorIN3gmx11BasicVectorIfEESaIS2_EE4dataEv(ptr noundef nonnull align 8 dereferenceable(24) %15) #10
  %17 = call noundef ptr @_ZN3gmxL13as_rvec_arrayEPNS_11BasicVectorIfEE(ptr noundef %16)
  %18 = getelementptr inbounds %"class.gmx::ProcessFrameConversion", ptr %6, i32 0, i32 2
  %19 = call noundef ptr @_ZNKSt10unique_ptrI10t_trxframeSt14default_deleteIS0_EEptEv(ptr noundef nonnull align 8 dereferenceable(8) %18) #10
  %20 = getelementptr inbounds %struct.t_trxframe, ptr %19, i32 0, i32 16
  store ptr %17, ptr %20, align 8
  %21 = load ptr, ptr %4, align 8
  %22 = getelementptr inbounds %struct.t_trxframe, ptr %21, i32 0, i32 17
  %23 = load i8, ptr %22, align 8
  %24 = trunc i8 %23 to i1
  br i1 %24, label %25, label %37

25:                                               ; preds = %2
  %26 = getelementptr inbounds %"class.gmx::ProcessFrameConversion", ptr %6, i32 0, i32 4
  %27 = load ptr, ptr %4, align 8
  %28 = getelementptr inbounds %struct.t_trxframe, ptr %27, i32 0, i32 2
  %29 = load i32, ptr %28, align 8
  %30 = sext i32 %29 to i64
  call void @_ZNSt6vectorIN3gmx11BasicVectorIfEESaIS2_EE6resizeEm(ptr noundef nonnull align 8 dereferenceable(24) %26, i64 noundef %30)
  %31 = getelementptr inbounds %"class.gmx::ProcessFrameConversion", ptr %6, i32 0, i32 4
  %32 = call noundef ptr @_ZNSt6vectorIN3gmx11BasicVectorIfEESaIS2_EE4dataEv(ptr noundef nonnull align 8 dereferenceable(24) %31) #10
  %33 = call noundef ptr @_ZN3gmxL13as_rvec_arrayEPNS_11BasicVectorIfEE(ptr noundef %32)
  %34 = getelementptr inbounds %"class.gmx::ProcessFrameConversion", ptr %6, i32 0, i32 2
  %35 = call noundef ptr @_ZNKSt10unique_ptrI10t_trxframeSt14default_deleteIS0_EEptEv(ptr noundef nonnull align 8 dereferenceable(8) %34) #10
  %36 = getelementptr inbounds %struct.t_trxframe, ptr %35, i32 0, i32 18
  store ptr %33, ptr %36, align 8
  br label %37

37:                                               ; preds = %25, %2
  %38 = load ptr, ptr %4, align 8
  %39 = getelementptr inbounds %struct.t_trxframe, ptr %38, i32 0, i32 19
  %40 = load i8, ptr %39, align 8
  %41 = trunc i8 %40 to i1
  br i1 %41, label %42, label %54

42:                                               ; preds = %37
  %43 = getelementptr inbounds %"class.gmx::ProcessFrameConversion", ptr %6, i32 0, i32 5
  %44 = load ptr, ptr %4, align 8
  %45 = getelementptr inbounds %struct.t_trxframe, ptr %44, i32 0, i32 2
  %46 = load i32, ptr %45, align 8
  %47 = sext i32 %46 to i64
  call void @_ZNSt6vectorIN3gmx11BasicVectorIfEESaIS2_EE6resizeEm(ptr noundef nonnull align 8 dereferenceable(24) %43, i64 noundef %47)
  %48 = getelementptr inbounds %"class.gmx::ProcessFrameConversion", ptr %6, i32 0, i32 5
  %49 = call noundef ptr @_ZNSt6vectorIN3gmx11BasicVectorIfEESaIS2_EE4dataEv(ptr noundef nonnull align 8 dereferenceable(24) %48) #10
  %50 = call noundef ptr @_ZN3gmxL13as_rvec_arrayEPNS_11BasicVectorIfEE(ptr noundef %49)
  %51 = getelementptr inbounds %"class.gmx::ProcessFrameConversion", ptr %6, i32 0, i32 2
  %52 = call noundef ptr @_ZNKSt10unique_ptrI10t_trxframeSt14default_deleteIS0_EEptEv(ptr noundef nonnull align 8 dereferenceable(8) %51) #10
  %53 = getelementptr inbounds %struct.t_trxframe, ptr %52, i32 0, i32 20
  store ptr %50, ptr %53, align 8
  br label %54

54:                                               ; preds = %42, %37
  store i32 0, ptr %5, align 4
  br label %55

55:                                               ; preds = %122, %54
  %56 = load i32, ptr %5, align 4
  %57 = getelementptr inbounds %"class.gmx::ProcessFrameConversion", ptr %6, i32 0, i32 2
  %58 = call noundef ptr @_ZNKSt10unique_ptrI10t_trxframeSt14default_deleteIS0_EEptEv(ptr noundef nonnull align 8 dereferenceable(8) %57) #10
  %59 = getelementptr inbounds %struct.t_trxframe, ptr %58, i32 0, i32 2
  %60 = load i32, ptr %59, align 8
  %61 = icmp slt i32 %56, %60
  br i1 %61, label %62, label %125

62:                                               ; preds = %55
  %63 = load ptr, ptr %4, align 8
  %64 = getelementptr inbounds %struct.t_trxframe, ptr %63, i32 0, i32 16
  %65 = load ptr, ptr %64, align 8
  %66 = load i32, ptr %5, align 4
  %67 = sext i32 %66 to i64
  %68 = getelementptr inbounds [3 x float], ptr %65, i64 %67
  %69 = getelementptr inbounds [3 x float], ptr %68, i64 0, i64 0
  %70 = getelementptr inbounds %"class.gmx::ProcessFrameConversion", ptr %6, i32 0, i32 2
  %71 = call noundef ptr @_ZNKSt10unique_ptrI10t_trxframeSt14default_deleteIS0_EEptEv(ptr noundef nonnull align 8 dereferenceable(8) %70) #10
  %72 = getelementptr inbounds %struct.t_trxframe, ptr %71, i32 0, i32 16
  %73 = load ptr, ptr %72, align 8
  %74 = load i32, ptr %5, align 4
  %75 = sext i32 %74 to i64
  %76 = getelementptr inbounds [3 x float], ptr %73, i64 %75
  %77 = getelementptr inbounds [3 x float], ptr %76, i64 0, i64 0
  call void @_ZL9copy_rvecPKfPf(ptr noundef %69, ptr noundef %77)
  %78 = getelementptr inbounds %"class.gmx::ProcessFrameConversion", ptr %6, i32 0, i32 2
  %79 = call noundef ptr @_ZNKSt10unique_ptrI10t_trxframeSt14default_deleteIS0_EEptEv(ptr noundef nonnull align 8 dereferenceable(8) %78) #10
  %80 = getelementptr inbounds %struct.t_trxframe, ptr %79, i32 0, i32 17
  %81 = load i8, ptr %80, align 8
  %82 = trunc i8 %81 to i1
  br i1 %82, label %83, label %99

83:                                               ; preds = %62
  %84 = load ptr, ptr %4, align 8
  %85 = getelementptr inbounds %struct.t_trxframe, ptr %84, i32 0, i32 18
  %86 = load ptr, ptr %85, align 8
  %87 = load i32, ptr %5, align 4
  %88 = sext i32 %87 to i64
  %89 = getelementptr inbounds [3 x float], ptr %86, i64 %88
  %90 = getelementptr inbounds [3 x float], ptr %89, i64 0, i64 0
  %91 = getelementptr inbounds %"class.gmx::ProcessFrameConversion", ptr %6, i32 0, i32 2
  %92 = call noundef ptr @_ZNKSt10unique_ptrI10t_trxframeSt14default_deleteIS0_EEptEv(ptr noundef nonnull align 8 dereferenceable(8) %91) #10
  %93 = getelementptr inbounds %struct.t_trxframe, ptr %92, i32 0, i32 18
  %94 = load ptr, ptr %93, align 8
  %95 = load i32, ptr %5, align 4
  %96 = sext i32 %95 to i64
  %97 = getelementptr inbounds [3 x float], ptr %94, i64 %96
  %98 = getelementptr inbounds [3 x float], ptr %97, i64 0, i64 0
  call void @_ZL9copy_rvecPKfPf(ptr noundef %90, ptr noundef %98)
  br label %99

99:                                               ; preds = %83, %62
  %100 = getelementptr inbounds %"class.gmx::ProcessFrameConversion", ptr %6, i32 0, i32 2
  %101 = call noundef ptr @_ZNKSt10unique_ptrI10t_trxframeSt14default_deleteIS0_EEptEv(ptr noundef nonnull align 8 dereferenceable(8) %100) #10
  %102 = getelementptr inbounds %struct.t_trxframe, ptr %101, i32 0, i32 19
  %103 = load i8, ptr %102, align 8
  %104 = trunc i8 %103 to i1
  br i1 %104, label %105, label %121

105:                                              ; preds = %99
  %106 = load ptr, ptr %4, align 8
  %107 = getelementptr inbounds %struct.t_trxframe, ptr %106, i32 0, i32 20
  %108 = load ptr, ptr %107, align 8
  %109 = load i32, ptr %5, align 4
  %110 = sext i32 %109 to i64
  %111 = getelementptr inbounds [3 x float], ptr %108, i64 %110
  %112 = getelementptr inbounds [3 x float], ptr %111, i64 0, i64 0
  %113 = getelementptr inbounds %"class.gmx::ProcessFrameConversion", ptr %6, i32 0, i32 2
  %114 = call noundef ptr @_ZNKSt10unique_ptrI10t_trxframeSt14default_deleteIS0_EEptEv(ptr noundef nonnull align 8 dereferenceable(8) %113) #10
  %115 = getelementptr inbounds %struct.t_trxframe, ptr %114, i32 0, i32 20
  %116 = load ptr, ptr %115, align 8
  %117 = load i32, ptr %5, align 4
  %118 = sext i32 %117 to i64
  %119 = getelementptr inbounds [3 x float], ptr %116, i64 %118
  %120 = getelementptr inbounds [3 x float], ptr %119, i64 0, i64 0
  call void @_ZL9copy_rvecPKfPf(ptr noundef %112, ptr noundef %120)
  br label %121

121:                                              ; preds = %105, %99
  br label %122

122:                                              ; preds = %121
  %123 = load i32, ptr %5, align 4
  %124 = add nsw i32 %123, 1
  store i32 %124, ptr %5, align 4
  br label %55, !llvm.loop !8

125:                                              ; preds = %55
  ret void
}