; Function Attrs: mustprogress uwtable
define void @_ZN3gmx22ProcessFrameConversion21prepareNewCoordinatesEPK10t_trxframe(ptr noundef nonnull align 8 dereferenceable(120) %0, ptr nocapture noundef readonly %1) local_unnamed_addr #1 align 2 {
  %3 = getelementptr inbounds i8, ptr %0, i64 32
  %4 = load ptr, ptr %3, align 8
  tail call void @llvm.memcpy.p0.p0.i64(ptr noundef nonnull align 8 dereferenceable(176) %4, ptr noundef nonnull align 8 dereferenceable(176) %1, i64 176, i1 false)
  %5 = getelementptr inbounds i8, ptr %0, i64 40
  %6 = getelementptr inbounds i8, ptr %1, i64 8
  %7 = load i32, ptr %6, align 8
  %8 = sext i32 %7 to i64
  tail call void @_ZNSt6vectorIN3gmx11BasicVectorIfEESaIS2_EE6resizeEm(ptr noundef nonnull align 8 dereferenceable(24) %5, i64 noundef %8)
  %9 = load ptr, ptr %5, align 8
  %10 = load ptr, ptr %3, align 8
  %11 = getelementptr inbounds i8, ptr %10, i64 72
  store ptr %9, ptr %11, align 8
  %12 = getelementptr inbounds i8, ptr %1, i64 80
  %13 = load i8, ptr %12, align 8
  %14 = trunc i8 %13 to i1
  br i1 %14, label %15, label %22

15:                                               ; preds = %2
  %16 = getelementptr inbounds i8, ptr %0, i64 64
  %17 = load i32, ptr %6, align 8
  %18 = sext i32 %17 to i64
  tail call void @_ZNSt6vectorIN3gmx11BasicVectorIfEESaIS2_EE6resizeEm(ptr noundef nonnull align 8 dereferenceable(24) %16, i64 noundef %18)
  %19 = load ptr, ptr %16, align 8
  %20 = load ptr, ptr %3, align 8
  %21 = getelementptr inbounds i8, ptr %20, i64 88
  store ptr %19, ptr %21, align 8
  br label %22

22:                                               ; preds = %15, %2
  %23 = getelementptr inbounds i8, ptr %1, i64 96
  %24 = load i8, ptr %23, align 8
  %25 = trunc i8 %24 to i1
  br i1 %25, label %26, label %33

26:                                               ; preds = %22
  %27 = getelementptr inbounds i8, ptr %0, i64 88
  %28 = load i32, ptr %6, align 8
  %29 = sext i32 %28 to i64
  tail call void @_ZNSt6vectorIN3gmx11BasicVectorIfEESaIS2_EE6resizeEm(ptr noundef nonnull align 8 dereferenceable(24) %27, i64 noundef %29)
  %30 = load ptr, ptr %27, align 8
  %31 = load ptr, ptr %3, align 8
  %32 = getelementptr inbounds i8, ptr %31, i64 104
  store ptr %30, ptr %32, align 8
  br label %33

33:                                               ; preds = %26, %22
  %34 = load ptr, ptr %3, align 8
  %35 = getelementptr inbounds i8, ptr %34, i64 8
  %36 = load i32, ptr %35, align 8
  %37 = icmp sgt i32 %36, 0
  br i1 %37, label %.lr.ph, label %._crit_edge

.lr.ph:                                           ; preds = %33
  %38 = getelementptr inbounds i8, ptr %1, i64 72
  %39 = getelementptr inbounds i8, ptr %1, i64 88
  %40 = getelementptr inbounds i8, ptr %1, i64 104
  br label %41

41:                                               ; preds = %.lr.ph, %90
  %indvars.iv = phi i64 [ 0, %.lr.ph ], [ %indvars.iv.next, %90 ]
  %42 = phi ptr [ %34, %.lr.ph ], [ %91, %90 ]
  %43 = load ptr, ptr %38, align 8
  %44 = getelementptr inbounds [3 x float], ptr %43, i64 %indvars.iv
  %45 = getelementptr inbounds i8, ptr %42, i64 72
  %46 = load ptr, ptr %45, align 8
  %47 = getelementptr inbounds [3 x float], ptr %46, i64 %indvars.iv
  %48 = load float, ptr %44, align 4
  store float %48, ptr %47, align 4
  %49 = getelementptr inbounds i8, ptr %44, i64 4
  %50 = load float, ptr %49, align 4
  %51 = getelementptr inbounds i8, ptr %47, i64 4
  store float %50, ptr %51, align 4
  %52 = getelementptr inbounds i8, ptr %44, i64 8
  %53 = load float, ptr %52, align 4
  %54 = getelementptr inbounds i8, ptr %47, i64 8
  store float %53, ptr %54, align 4
  %55 = load ptr, ptr %3, align 8
  %56 = getelementptr inbounds i8, ptr %55, i64 80
  %57 = load i8, ptr %56, align 8
  %58 = trunc i8 %57 to i1
  br i1 %58, label %59, label %72

59:                                               ; preds = %41
  %60 = load ptr, ptr %39, align 8
  %61 = getelementptr inbounds [3 x float], ptr %60, i64 %indvars.iv
  %62 = getelementptr inbounds i8, ptr %55, i64 88
  %63 = load ptr, ptr %62, align 8
  %64 = getelementptr inbounds [3 x float], ptr %63, i64 %indvars.iv
  %65 = load float, ptr %61, align 4
  store float %65, ptr %64, align 4
  %66 = getelementptr inbounds i8, ptr %61, i64 4
  %67 = load float, ptr %66, align 4
  %68 = getelementptr inbounds i8, ptr %64, i64 4
  store float %67, ptr %68, align 4
  %69 = getelementptr inbounds i8, ptr %61, i64 8
  %70 = load float, ptr %69, align 4
  %71 = getelementptr inbounds i8, ptr %64, i64 8
  store float %70, ptr %71, align 4
  %.pre = load ptr, ptr %3, align 8
  br label %72

72:                                               ; preds = %59, %41
  %73 = phi ptr [ %.pre, %59 ], [ %55, %41 ]
  %74 = getelementptr inbounds i8, ptr %73, i64 96
  %75 = load i8, ptr %74, align 8
  %76 = trunc i8 %75 to i1
  br i1 %76, label %77, label %90

77:                                               ; preds = %72
  %78 = load ptr, ptr %40, align 8
  %79 = getelementptr inbounds [3 x float], ptr %78, i64 %indvars.iv
  %80 = getelementptr inbounds i8, ptr %73, i64 104
  %81 = load ptr, ptr %80, align 8
  %82 = getelementptr inbounds [3 x float], ptr %81, i64 %indvars.iv
  %83 = load float, ptr %79, align 4
  store float %83, ptr %82, align 4
  %84 = getelementptr inbounds i8, ptr %79, i64 4
  %85 = load float, ptr %84, align 4
  %86 = getelementptr inbounds i8, ptr %82, i64 4
  store float %85, ptr %86, align 4
  %87 = getelementptr inbounds i8, ptr %79, i64 8
  %88 = load float, ptr %87, align 4
  %89 = getelementptr inbounds i8, ptr %82, i64 8
  store float %88, ptr %89, align 4
  %.pre19 = load ptr, ptr %3, align 8
  br label %90

90:                                               ; preds = %72, %77
  %91 = phi ptr [ %73, %72 ], [ %.pre19, %77 ]
  %indvars.iv.next = add nuw nsw i64 %indvars.iv, 1
  %92 = getelementptr inbounds i8, ptr %91, i64 8
  %93 = load i32, ptr %92, align 8
  %94 = sext i32 %93 to i64
  %95 = icmp slt i64 %indvars.iv.next, %94
  br i1 %95, label %41, label %._crit_edge, !llvm.loop !21

._crit_edge:                                      ; preds = %90, %33
  ret void
}